target datalayout = "e-m:e-p270:32:32-p271:32:32-p272:64:64-i64:64-i128:128-f80:128-n8:16:32:64-S128"
target triple = "x86_64-unknown-linux-gnu"

%"class.sat::literal" = type { i32 }
%class.svector.26 = type { %class.vector.27 }
%class.vector.27 = type { ptr }
%"class.sat::status" = type { i32, i32, ptr }
%"struct.dimacs::drat_pp" = type { ptr, ptr }
%"struct.sat::status_pp" = type { ptr, ptr }
%"struct.dimacs::drat_record" = type { %class.svector.26, %"class.sat::status" }
%"struct.sat::mk_lits_pp" = type { i32, ptr }

@_ZN3satL12null_literalE = internal global %"class.sat::literal" zeroinitializer, align 4
@.str = private unnamed_addr constant [2 x i8] c" \00", align 1
@.str.2 = private unnamed_addr constant [4 x i8] c" 0\0A\00", align 1
@.str.3 = private unnamed_addr constant [5 x i8] c"null\00", align 1
@.str.4 = private unnamed_addr constant [2 x i8] c"-\00", align 1
@.str.5 = private unnamed_addr constant [1 x i8] zeroinitializer, align 1

; Function Attrs: mustprogress nounwind uwtable
define linkonce_odr hidden noundef i32 @_ZNK3sat7literal3varEv(ptr noundef nonnull align 4 dereferenceable(4) %this) #4 comdat align 2 {
entry:
  %this.addr = alloca ptr, align 8
  store ptr %this, ptr %this.addr, align 8
  %this1 = load ptr, ptr %this.addr, align 8
  %m_val = getelementptr inbounds %"class.sat::literal", ptr %this1, i32 0, i32 0
  %0 = load i32, ptr %m_val, align 4
  %shr = lshr i32 %0, 1
  ret i32 %shr
}

; Function Attrs: mustprogress nounwind uwtable
define linkonce_odr hidden noundef zeroext i1 @_ZNK3sat7literal4signEv(ptr noundef nonnull align 4 dereferenceable(4) %this) #4 comdat align 2 {
entry:
  %this.addr = alloca ptr, align 8
  store ptr %this, ptr %this.addr, align 8
  %this1 = load ptr, ptr %this.addr, align 8
  %m_val = getelementptr inbounds %"class.sat::literal", ptr %this1, i32 0, i32 0
  %0 = load i32, ptr %m_val, align 4
  %conv = zext i32 %0 to i64
  %and = and i64 %conv, 1
  %tobool = icmp ne i64 %and, 0
  ret i1 %tobool
}

; Function Attrs: mustprogress nounwind uwtable
define linkonce_odr hidden noundef zeroext i1 @_ZN3sateqERKNS_7literalES2_(ptr noundef nonnull align 4 dereferenceable(4) %l1, ptr noundef nonnull align 4 dereferenceable(4) %l2) #4 comdat {
entry:
  %l1.addr = alloca ptr, align 8
  %l2.addr = alloca ptr, align 8
  store ptr %l1, ptr %l1.addr, align 8
  store ptr %l2, ptr %l2.addr, align 8
  %0 = load ptr, ptr %l1.addr, align 8
  %m_val = getelementptr inbounds %"class.sat::literal", ptr %0, i32 0, i32 0
  %1 = load i32, ptr %m_val, align 4
  %2 = load ptr, ptr %l2.addr, align 8
  %m_val1 = getelementptr inbounds %"class.sat::literal", ptr %2, i32 0, i32 0
  %3 = load i32, ptr %m_val1, align 4
  %cmp = icmp eq i32 %1, %3
  ret i1 %cmp
}

; Function Attrs: mustprogress uwtable
define linkonce_odr hidden noundef nonnull align 8 dereferenceable(8) ptr @_ZN3satlsERSoNS_7literalE(ptr noundef nonnull align 8 dereferenceable(8) %out, i32 %l.coerce) #5 comdat {
entry:
  %l = alloca %"class.sat::literal", align 4
  %out.addr = alloca ptr, align 8
  %coerce.dive = getelementptr inbounds %"class.sat::literal", ptr %l, i32 0, i32 0
  store i32 %l.coerce, ptr %coerce.dive, align 4
  store ptr %out, ptr %out.addr, align 8
  %call = call noundef zeroext i1 @_ZN3sateqERKNS_7literalES2_(ptr noundef nonnull align 4 dereferenceable(4) %l, ptr noundef nonnull align 4 dereferenceable(4) @_ZN3satL12null_literalE)
  br i1 %call, label %if.then, label %if.else

if.then:                                          ; preds = %entry
  %0 = load ptr, ptr %out.addr, align 8
  %call1 = call noundef nonnull align 8 dereferenceable(8) ptr @_ZStlsISt11char_traitsIcEERSt13basic_ostreamIcT_ES5_PKc(ptr noundef nonnull align 8 dereferenceable(8) %0, ptr noundef @.str.3)
  br label %if.end

if.else:                                          ; preds = %entry
  %1 = load ptr, ptr %out.addr, align 8
  %call2 = call noundef zeroext i1 @_ZNK3sat7literal4signEv(ptr noundef nonnull align 4 dereferenceable(4) %l)
  %cond = select i1 %call2, ptr @.str.4, ptr @.str.5
  %call3 = call noundef nonnull align 8 dereferenceable(8) ptr @_ZStlsISt11char_traitsIcEERSt13basic_ostreamIcT_ES5_PKc(ptr noundef nonnull align 8 dereferenceable(8) %1, ptr noundef %cond)
  %call4 = call noundef i32 @_ZNK3sat7literal3varEv(ptr noundef nonnull align 4 dereferenceable(4) %l)
  %call5 = call noundef nonnull align 8 dereferenceable(8) ptr @_ZNSolsEj(ptr noundef nonnull align 8 dereferenceable(8) %call3, i32 noundef %call4)
  br label %if.end

if.end:                                           ; preds = %if.else, %if.then
  %2 = load ptr, ptr %out.addr, align 8
  ret ptr %2
}

; Function Attrs: mustprogress uwtable
define linkonce_odr hidden noundef nonnull align 8 dereferenceable(8) ptr @_ZN3satlsERSoRKNS_10mk_lits_ppE(ptr noundef nonnull align 8 dereferenceable(8) %out, ptr noundef nonnull align 8 dereferenceable(16) %ls) #5 comdat {
entry:
  %out.addr = alloca ptr, align 8
  %ls.addr = alloca ptr, align 8
  %i = alloca i32, align 4
  %agg.tmp = alloca %"class.sat::literal", align 4
  store ptr %out, ptr %out.addr, align 8
  store ptr %ls, ptr %ls.addr, align 8
  store i32 0, ptr %i, align 4
  br label %for.cond

for.cond:                                         ; preds = %for.inc, %entry
  %0 = load i32, ptr %i, align 4
  %1 = load ptr, ptr %ls.addr, align 8
  %m_num = getelementptr inbounds %"struct.sat::mk_lits_pp", ptr %1, i32 0, i32 0
  %2 = load i32, ptr %m_num, align 8
  %cmp = icmp ult i32 %0, %2
  br i1 %cmp, label %for.body, label %for.end

for.body:                                         ; preds = %for.cond
  %3 = load i32, ptr %i, align 4
  %cmp1 = icmp ugt i32 %3, 0
  br i1 %cmp1, label %if.then, label %if.end

if.then:                                          ; preds = %for.body
  %4 = load ptr, ptr %out.addr, align 8
  %call = call noundef nonnull align 8 dereferenceable(8) ptr @_ZStlsISt11char_traitsIcEERSt13basic_ostreamIcT_ES5_PKc(ptr noundef nonnull align 8 dereferenceable(8) %4, ptr noundef @.str)
  br label %if.end

if.end:                                           ; preds = %if.then, %for.body
  %5 = load ptr, ptr %out.addr, align 8
  %6 = load ptr, ptr %ls.addr, align 8
  %m_lits = getelementptr inbounds %"struct.sat::mk_lits_pp", ptr %6, i32 0, i32 1
  %7 = load ptr, ptr %m_lits, align 8
  %8 = load i32, ptr %i, align 4
  %idxprom = zext i32 %8 to i64
  %arrayidx = getelementptr inbounds %"class.sat::literal", ptr %7, i64 %idxprom
  call void @llvm.memcpy.p0.p0.i64(ptr align 4 %agg.tmp, ptr align 4 %arrayidx, i64 4, i1 false)
  %coerce.dive = getelementptr inbounds %"class.sat::literal", ptr %agg.tmp, i32 0, i32 0
  %9 = load i32, ptr %coerce.dive, align 4
  %call2 = call noundef nonnull align 8 dereferenceable(8) ptr @_ZN3satlsERSoNS_7literalE(ptr noundef nonnull align 8 dereferenceable(8) %5, i32 %9)
  br label %for.inc

for.inc:                                          ; preds = %if.end
  %10 = load i32, ptr %i, align 4
  %inc = add i32 %10, 1
  store i32 %inc, ptr %i, align 4
  br label %for.cond, !llvm.loop !12

for.end:                                          ; preds = %for.cond
  %11 = load ptr, ptr %out.addr, align 8
  ret ptr %11
}

; Function Attrs: mustprogress nounwind uwtable
define linkonce_odr hidden void @_ZN3sat10mk_lits_ppC2EjPKNS_7literalE(ptr noundef nonnull align 8 dereferenceable(16) %this, i32 noundef %num, ptr noundef %ls) unnamed_addr #4 comdat align 2 {
entry:
  %this.addr = alloca ptr, align 8
  %num.addr = alloca i32, align 4
  %ls.addr = alloca ptr, align 8
  store ptr %this, ptr %this.addr, align 8
  store i32 %num, ptr %num.addr, align 4
  store ptr %ls, ptr %ls.addr, align 8
  %this1 = load ptr, ptr %this.addr, align 8
  %m_num = getelementptr inbounds %"struct.sat::mk_lits_pp", ptr %this1, i32 0, i32 0
  %0 = load i32, ptr %num.addr, align 4
  store i32 %0, ptr %m_num, align 8
  %m_lits = getelementptr inbounds %"struct.sat::mk_lits_pp", ptr %this1, i32 0, i32 1
  %1 = load ptr, ptr %ls.addr, align 8
  store ptr %1, ptr %m_lits, align 8
  ret void
}

; Function Attrs: mustprogress nounwind uwtable
define linkonce_odr hidden noundef ptr @_ZNK6vectorIN3sat7literalELb0EjE4dataEv(ptr noundef nonnull align 8 dereferenceable(8) %this) #4 comdat align 2 {
entry:
  %this.addr = alloca ptr, align 8
  store ptr %this, ptr %this.addr, align 8
  %this1 = load ptr, ptr %this.addr, align 8
  %m_data = getelementptr inbounds %class.vector.27, ptr %this1, i32 0, i32 0
  %0 = load ptr, ptr %m_data, align 8
  ret ptr %0
}

; Function Attrs: mustprogress nounwind uwtable
define linkonce_odr hidden noundef i32 @_ZNK6vectorIN3sat7literalELb0EjE4sizeEv(ptr noundef nonnull align 8 dereferenceable(8) %this) #4 comdat align 2 {
entry:
  %retval = alloca i32, align 4
  %this.addr = alloca ptr, align 8
  store ptr %this, ptr %this.addr, align 8
  %this1 = load ptr, ptr %this.addr, align 8
  %m_data = getelementptr inbounds %class.vector.27, ptr %this1, i32 0, i32 0
  %0 = load ptr, ptr %m_data, align 8
  %cmp = icmp eq ptr %0, null
  br i1 %cmp, label %if.then, label %if.end

if.then:                                          ; preds = %entry
  store i32 0, ptr %retval, align 4
  br label %return

if.end:                                           ; preds = %entry
  %m_data2 = getelementptr inbounds %class.vector.27, ptr %this1, i32 0, i32 0
  %1 = load ptr, ptr %m_data2, align 8
  %arrayidx = getelementptr inbounds i32, ptr %1, i64 -1
  %2 = load i32, ptr %arrayidx, align 4
  store i32 %2, ptr %retval, align 4
  br label %return

return:                                           ; preds = %if.end, %if.then
  %3 = load i32, ptr %retval, align 4
  ret i32 %3
}

; Function Attrs: mustprogress uwtable
define linkonce_odr hidden noundef nonnull align 8 dereferenceable(8) ptr @_ZN3satlsERSoRK7svectorINS_7literalEjE(ptr noundef nonnull align 8 dereferenceable(8) %out, ptr noundef nonnull align 8 dereferenceable(8) %ls) #5 comdat {
entry:
  %out.addr = alloca ptr, align 8
  %ls.addr = alloca ptr, align 8
  %ref.tmp = alloca %"struct.sat::mk_lits_pp", align 8
  store ptr %out, ptr %out.addr, align 8
  store ptr %ls, ptr %ls.addr, align 8
  %0 = load ptr, ptr %out.addr, align 8
  %1 = load ptr, ptr %ls.addr, align 8
  %call = call noundef i32 @_ZNK6vectorIN3sat7literalELb0EjE4sizeEv(ptr noundef nonnull align 8 dereferenceable(8) %1)
  %2 = load ptr, ptr %ls.addr, align 8
  %call1 = call noundef ptr @_ZNK6vectorIN3sat7literalELb0EjE4dataEv(ptr noundef nonnull align 8 dereferenceable(8) %2)
  call void @_ZN3sat10mk_lits_ppC2EjPKNS_7literalE(ptr noundef nonnull align 8 dereferenceable(16) %ref.tmp, i32 noundef %call, ptr noundef %call1)
  %call2 = call noundef nonnull align 8 dereferenceable(8) ptr @_ZN3satlsERSoRKNS_10mk_lits_ppE(ptr noundef nonnull align 8 dereferenceable(8) %0, ptr noundef nonnull align 8 dereferenceable(16) %ref.tmp)
  ret ptr %call2
}

; Function Attrs: mustprogress nounwind uwtable
define linkonce_odr hidden void @_ZN3sat9status_ppC2ERKNS_6statusERSt8functionIF6symboliEE(ptr noundef nonnull align 8 dereferenceable(16) %this, ptr noundef nonnull align 8 dereferenceable(16) %st, ptr noundef nonnull align 8 dereferenceable(32) %th) unnamed_addr #4 comdat align 2 {
entry:
  %this.addr = alloca ptr, align 8
  %st.addr = alloca ptr, align 8
  %th.addr = alloca ptr, align 8
  store ptr %this, ptr %this.addr, align 8
  store ptr %st, ptr %st.addr, align 8
  store ptr %th, ptr %th.addr, align 8
  %this1 = load ptr, ptr %this.addr, align 8
  %st2 = getelementptr inbounds %"struct.sat::status_pp", ptr %this1, i32 0, i32 0
  %0 = load ptr, ptr %st.addr, align 8
  store ptr %0, ptr %st2, align 8
  %th3 = getelementptr inbounds %"struct.sat::status_pp", ptr %this1, i32 0, i32 1
  %1 = load ptr, ptr %th.addr, align 8
  store ptr %1, ptr %th3, align 8
  ret void
}

; Function Attrs: mustprogress uwtable
define hidden noundef nonnull align 8 dereferenceable(8) ptr @_ZN6dimacslsERSoRKNS_7drat_ppE(ptr noundef nonnull align 8 dereferenceable(8) %out, ptr noundef nonnull align 8 dereferenceable(16) %p) #5 {
entry:
  %out.addr = alloca ptr, align 8
  %p.addr = alloca ptr, align 8
  %r = alloca ptr, align 8
  %pp = alloca %"struct.sat::status_pp", align 8
  store ptr %out, ptr %out.addr, align 8
  store ptr %p, ptr %p.addr, align 8
  %0 = load ptr, ptr %p.addr, align 8
  %r1 = getelementptr inbounds %"struct.dimacs::drat_pp", ptr %0, i32 0, i32 0
  %1 = load ptr, ptr %r1, align 8
  store ptr %1, ptr %r, align 8
  %2 = load ptr, ptr %r, align 8
  %m_status = getelementptr inbounds %"struct.dimacs::drat_record", ptr %2, i32 0, i32 1
  %3 = load ptr, ptr %p.addr, align 8
  %th = getelementptr inbounds %"struct.dimacs::drat_pp", ptr %3, i32 0, i32 1
  %4 = load ptr, ptr %th, align 8
  call void @_ZN3sat9status_ppC2ERKNS_6statusERSt8functionIF6symboliEE(ptr noundef nonnull align 8 dereferenceable(16) %pp, ptr noundef nonnull align 8 dereferenceable(16) %m_status, ptr noundef nonnull align 8 dereferenceable(32) %4)
  %5 = load ptr, ptr %out.addr, align 8
  %call = call noundef nonnull align 8 dereferenceable(8) ptr @_ZN3satlsERSoRKNS_9status_ppE(ptr noundef nonnull align 8 dereferenceable(8) %5, ptr noundef nonnull align 8 dereferenceable(16) %pp)
  %call2 = call noundef nonnull align 8 dereferenceable(8) ptr @_ZStlsISt11char_traitsIcEERSt13basic_ostreamIcT_ES5_PKc(ptr noundef nonnull align 8 dereferenceable(8) %call, ptr noundef @.str)
  %6 = load ptr, ptr %r, align 8
  %m_lits = getelementptr inbounds %"struct.dimacs::drat_record", ptr %6, i32 0, i32 0
  %call3 = call noundef nonnull align 8 dereferenceable(8) ptr @_ZN3satlsERSoRK7svectorINS_7literalEjE(ptr noundef nonnull align 8 dereferenceable(8) %call2, ptr noundef nonnull align 8 dereferenceable(8) %m_lits)
  %call4 = call noundef nonnull align 8 dereferenceable(8) ptr @_ZStlsISt11char_traitsIcEERSt13basic_ostreamIcT_ES5_PKc(ptr noundef nonnull align 8 dereferenceable(8) %call3, ptr noundef @.str.2)
  ret ptr %call4
}