; Function Attrs: mustprogress uwtable
define hidden noundef nonnull align 8 dereferenceable(8) ptr @_ZN6dimacslsERSoRKNS_7drat_ppE(ptr noundef nonnull align 8 dereferenceable(8) %out, ptr nocapture noundef nonnull readonly align 8 dereferenceable(16) %p) local_unnamed_addr #3 {
entry:
  %pp = alloca %"struct.sat::status_pp", align 8
  %0 = load ptr, ptr %p, align 8
  %m_status = getelementptr inbounds i8, ptr %0, i64 8
  %th = getelementptr inbounds i8, ptr %p, i64 8
  %1 = load ptr, ptr %th, align 8
  store ptr %m_status, ptr %pp, align 8
  %th3.i = getelementptr inbounds i8, ptr %pp, i64 8
  store ptr %1, ptr %th3.i, align 8
  %call = call noundef nonnull align 8 dereferenceable(8) ptr @_ZN3satlsERSoRKNS_9status_ppE(ptr noundef nonnull align 8 dereferenceable(8) %out, ptr noundef nonnull align 8 dereferenceable(16) %pp)
  %call2 = call noundef nonnull align 8 dereferenceable(8) ptr @_ZStlsISt11char_traitsIcEERSt13basic_ostreamIcT_ES5_PKc(ptr noundef nonnull align 8 dereferenceable(8) %call, ptr noundef nonnull @.str)
  %2 = load ptr, ptr %0, align 8
  %cmp.i.i = icmp eq ptr %2, null
  br i1 %cmp.i.i, label %_ZN3satlsERSoRK7svectorINS_7literalEjE.exit, label %_ZNK6vectorIN3sat7literalELb0EjE4sizeEv.exit.i

_ZNK6vectorIN3sat7literalELb0EjE4sizeEv.exit.i:   ; preds = %entry
  %arrayidx.i.i = getelementptr inbounds i8, ptr %2, i64 -4
  %3 = load i32, ptr %arrayidx.i.i, align 4
  %cmp7.not.i.i = icmp eq i32 %3, 0
  br i1 %cmp7.not.i.i, label %_ZN3satlsERSoRK7svectorINS_7literalEjE.exit, label %for.body.i.preheader.i

for.body.i.preheader.i:                           ; preds = %_ZNK6vectorIN3sat7literalELb0EjE4sizeEv.exit.i
  %4 = zext i32 %3 to i64
  br label %for.body.i.i

for.body.i.i:                                     ; preds = %_ZN3satlsERSoNS_7literalE.exit.i.i, %for.body.i.preheader.i
  %indvars.iv.i.i = phi i64 [ %indvars.iv.next.i.i, %_ZN3satlsERSoNS_7literalE.exit.i.i ], [ 0, %for.body.i.preheader.i ]
  %cmp1.not.i.i = icmp eq i64 %indvars.iv.i.i, 0
  br i1 %cmp1.not.i.i, label %if.end.i3.i, label %if.then.i.i

if.then.i.i:                                      ; preds = %for.body.i.i
  %call.i.i = call noundef nonnull align 8 dereferenceable(8) ptr @_ZStlsISt11char_traitsIcEERSt13basic_ostreamIcT_ES5_PKc(ptr noundef nonnull align 8 dereferenceable(8) %call2, ptr noundef nonnull @.str)
  br label %if.end.i3.i

if.end.i3.i:                                      ; preds = %if.then.i.i, %for.body.i.i
  %arrayidx.i4.i = getelementptr inbounds %"class.sat::literal", ptr %2, i64 %indvars.iv.i.i
  %agg.tmp.sroa.0.0.copyload.i.i = load i32, ptr %arrayidx.i4.i, align 4
  %.b = load i1, ptr @_ZN3satL12null_literalE.0, align 4
  %5 = select i1 %.b, i32 -2, i32 0
  %cmp.i.i.i.i = icmp eq i32 %5, %agg.tmp.sroa.0.0.copyload.i.i
  br i1 %cmp.i.i.i.i, label %if.then.i.i.i, label %if.else.i.i.i

if.then.i.i.i:                                    ; preds = %if.end.i3.i
  %call1.i.i.i = call noundef nonnull align 8 dereferenceable(8) ptr @_ZStlsISt11char_traitsIcEERSt13basic_ostreamIcT_ES5_PKc(ptr noundef nonnull align 8 dereferenceable(8) %call2, ptr noundef nonnull @.str.3)
  br label %_ZN3satlsERSoNS_7literalE.exit.i.i

if.else.i.i.i:                                    ; preds = %if.end.i3.i
  %6 = and i32 %agg.tmp.sroa.0.0.copyload.i.i, 1
  %tobool.i.not.i.i.i = icmp eq i32 %6, 0
  %cond.i.i.i = select i1 %tobool.i.not.i.i.i, ptr @.str.5, ptr @.str.4
  %call3.i.i.i = call noundef nonnull align 8 dereferenceable(8) ptr @_ZStlsISt11char_traitsIcEERSt13basic_ostreamIcT_ES5_PKc(ptr noundef nonnull align 8 dereferenceable(8) %call2, ptr noundef nonnull %cond.i.i.i)
  %shr.i.i.i.i = lshr i32 %agg.tmp.sroa.0.0.copyload.i.i, 1
  %call5.i.i.i = call noundef nonnull align 8 dereferenceable(8) ptr @_ZNSolsEj(ptr noundef nonnull align 8 dereferenceable(8) %call3.i.i.i, i32 noundef %shr.i.i.i.i)
  br label %_ZN3satlsERSoNS_7literalE.exit.i.i

_ZN3satlsERSoNS_7literalE.exit.i.i:               ; preds = %if.else.i.i.i, %if.then.i.i.i
  %indvars.iv.next.i.i = add nuw nsw i64 %indvars.iv.i.i, 1
  %exitcond.not.i = icmp eq i64 %indvars.iv.next.i.i, %4
  br i1 %exitcond.not.i, label %_ZN3satlsERSoRK7svectorINS_7literalEjE.exit, label %for.body.i.i, !llvm.loop !13

_ZN3satlsERSoRK7svectorINS_7literalEjE.exit:      ; preds = %_ZN3satlsERSoNS_7literalE.exit.i.i, %entry, %_ZNK6vectorIN3sat7literalELb0EjE4sizeEv.exit.i
  %call4 = call noundef nonnull align 8 dereferenceable(8) ptr @_ZStlsISt11char_traitsIcEERSt13basic_ostreamIcT_ES5_PKc(ptr noundef nonnull align 8 dereferenceable(8) %call2, ptr noundef nonnull @.str.2)
  ret ptr %call4
}